target datalayout = "e-m:e-p270:32:32-p271:32:32-p272:64:64-i64:64-i128:128-f80:128-n8:16:32:64-S128"
target triple = "x86_64-pc-linux-gnu"

%struct._zend_array = type { %struct._zend_refcounted_h, %union.anon.0, i32, %union.anon.1, i32, i32, i32, i32, i64, ptr }
%struct._zend_refcounted_h = type { i32, %union.anon }
%union.anon = type { i32 }
%union.anon.0 = type { i32 }
%union.anon.1 = type { ptr }
%struct._zend_executor_globals = type { %struct._zval_struct, %struct._zval_struct, [32 x ptr], ptr, ptr, %struct._zend_array, %struct._zend_array, ptr, i32, i32, ptr, ptr, ptr, ptr, ptr, ptr, i64, ptr, ptr, i32, i32, i64, i32, i32, i32, i8, i8, %struct.zend_atomic_bool_s, %struct.zend_atomic_bool_s, ptr, i64, ptr, ptr, %struct._zend_array, %struct._zend_array, i32, i8, %struct._zval_struct, %struct._zval_struct, %struct._zend_stack, %struct._zend_stack, %struct._zend_stack, ptr, i32, i32, i64, ptr, ptr, ptr, %struct._zend_objects_store, ptr, ptr, ptr, [3 x %struct._zend_op], ptr, i8, i8, i64, i32, i32, ptr, [16 x %struct._HashTableIterator], ptr, %union._zend_function, %struct._zend_op, %struct._zend_array, i64, %struct.zend_get_gc_buffer, ptr, ptr, ptr, i64, i8, i32, ptr, ptr, i64, %struct._zend_call_stack, i64, i64, [6 x ptr] }
%struct.zend_atomic_bool_s = type { i8 }
%struct._zval_struct = type { %union._zend_value, %union.anon.3, %union.anon.6 }
%union._zend_value = type { i64 }
%union.anon.3 = type { i32 }
%union.anon.6 = type { i32 }
%struct._zend_stack = type { i32, i32, i32, ptr }
%struct._zend_objects_store = type { ptr, i32, i32, i32 }
%struct._HashTableIterator = type { ptr, i32, i32 }
%union._zend_function = type { %struct._zend_op_array }
%struct._zend_op_array = type { i8, [3 x i8], i32, ptr, ptr, ptr, i32, i32, ptr, ptr, ptr, ptr, i32, i32, i32, i32, ptr, ptr, ptr, ptr, ptr, i32, i32, ptr, ptr, ptr, i32, i32, i32, i32, ptr, ptr, [6 x ptr] }
%struct._zend_op = type { ptr, %union._znode_op, %union._znode_op, %union._znode_op, i32, i32, i8, i8, i8, i8 }
%union._znode_op = type { i32 }
%struct.zend_get_gc_buffer = type { ptr, ptr, ptr }
%struct._zend_call_stack = type { ptr, i64 }
%struct._zend_string = type { %struct._zend_refcounted_h, i64, i64, [1 x i8] }
%struct._phar_metadata_tracker = type { %struct._zval_struct, ptr }
%struct._zend_refcounted = type { %struct._zend_refcounted_h }

@executor_globals = external global %struct._zend_executor_globals, align 8

; Function Attrs: nounwind uwtable
define hidden i32 @phar_metadata_tracker_unserialize_or_copy(ptr noundef %0, ptr noundef %1, i32 noundef %2, ptr noundef %3, ptr noundef %4) #0 {
  %6 = alloca ptr, align 8
  %7 = alloca ptr, align 8
  %8 = alloca ptr, align 8
  %9 = alloca i32, align 4
  %10 = alloca ptr, align 8
  %11 = alloca ptr, align 8
  %12 = alloca i32, align 4
  %13 = alloca ptr, align 8
  %14 = alloca ptr, align 8
  %15 = alloca i8, align 1
  %16 = alloca ptr, align 8
  %17 = alloca ptr, align 8
  %18 = alloca ptr, align 8
  %19 = alloca ptr, align 8
  %20 = alloca i32, align 4
  store ptr %0, ptr %10, align 8
  store ptr %1, ptr %11, align 8
  store i32 %2, ptr %12, align 4
  store ptr %3, ptr %13, align 8
  store ptr %4, ptr %14, align 8
  %21 = load ptr, ptr %13, align 8
  %22 = icmp ne ptr %21, null
  br i1 %22, label %23, label %29

23:                                               ; preds = %5
  %24 = load ptr, ptr %13, align 8
  store ptr %24, ptr %8, align 8
  %25 = load ptr, ptr %8, align 8
  %26 = getelementptr inbounds %struct._zend_array, ptr %25, i32 0, i32 5
  %27 = load i32, ptr %26, align 4
  %28 = icmp ugt i32 %27, 0
  br label %29

29:                                               ; preds = %23, %5
  %30 = phi i1 [ false, %5 ], [ %28, %23 ]
  %31 = zext i1 %30 to i8
  store i8 %31, ptr %15, align 1
  %32 = load ptr, ptr %10, align 8
  %33 = getelementptr inbounds %struct._phar_metadata_tracker, ptr %32, i32 0, i32 0
  store ptr %33, ptr %7, align 8
  %34 = load ptr, ptr %7, align 8
  %35 = getelementptr inbounds %struct._zval_struct, ptr %34, i32 0, i32 1
  %36 = load i8, ptr %35, align 8
  %37 = zext i8 %36 to i32
  %38 = icmp eq i32 %37, 0
  br i1 %38, label %42, label %39

39:                                               ; preds = %29
  %40 = load i8, ptr %15, align 1
  %41 = trunc i8 %40 to i1
  br i1 %41, label %42, label %78

42:                                               ; preds = %39, %29
  %43 = load ptr, ptr getelementptr inbounds (%struct._zend_executor_globals, ptr @executor_globals, i32 0, i32 50), align 8
  %44 = icmp ne ptr %43, null
  br i1 %44, label %45, label %46

45:                                               ; preds = %42
  store i32 -1, ptr %9, align 4
  br label %109

46:                                               ; preds = %42
  %47 = load ptr, ptr %10, align 8
  %48 = getelementptr inbounds %struct._phar_metadata_tracker, ptr %47, i32 0, i32 1
  %49 = load ptr, ptr %48, align 8
  %50 = icmp ne ptr %49, null
  call void @llvm.assume(i1 %50)
  br label %51

51:                                               ; preds = %46
  %52 = load ptr, ptr %11, align 8
  %53 = getelementptr inbounds %struct._zval_struct, ptr %52, i32 0, i32 1
  store i32 1, ptr %53, align 8
  br label %54

54:                                               ; preds = %51
  %55 = load ptr, ptr %10, align 8
  %56 = getelementptr inbounds %struct._phar_metadata_tracker, ptr %55, i32 0, i32 1
  %57 = load ptr, ptr %56, align 8
  %58 = getelementptr inbounds %struct._zend_string, ptr %57, i32 0, i32 3
  %59 = getelementptr inbounds [1 x i8], ptr %58, i64 0, i64 0
  store ptr %59, ptr %16, align 8
  %60 = load ptr, ptr %11, align 8
  %61 = load ptr, ptr %16, align 8
  %62 = load ptr, ptr %10, align 8
  %63 = getelementptr inbounds %struct._phar_metadata_tracker, ptr %62, i32 0, i32 1
  %64 = load ptr, ptr %63, align 8
  %65 = getelementptr inbounds %struct._zend_string, ptr %64, i32 0, i32 2
  %66 = load i64, ptr %65, align 8
  %67 = load ptr, ptr %13, align 8
  %68 = load ptr, ptr %14, align 8
  call void @php_unserialize_with_options(ptr noundef %60, ptr noundef %61, i64 noundef %66, ptr noundef %67, ptr noundef %68)
  %69 = load ptr, ptr getelementptr inbounds (%struct._zend_executor_globals, ptr @executor_globals, i32 0, i32 50), align 8
  %70 = icmp ne ptr %69, null
  br i1 %70, label %71, label %77

71:                                               ; preds = %54
  %72 = load ptr, ptr %11, align 8
  call void @zval_ptr_dtor(ptr noundef %72)
  br label %73

73:                                               ; preds = %71
  %74 = load ptr, ptr %11, align 8
  %75 = getelementptr inbounds %struct._zval_struct, ptr %74, i32 0, i32 1
  store i32 0, ptr %75, align 8
  br label %76

76:                                               ; preds = %73
  store i32 -1, ptr %9, align 4
  br label %109

77:                                               ; preds = %54
  store i32 0, ptr %9, align 4
  br label %109

78:                                               ; preds = %39
  br label %79

79:                                               ; preds = %78
  %80 = load ptr, ptr %11, align 8
  store ptr %80, ptr %17, align 8
  %81 = load ptr, ptr %10, align 8
  %82 = getelementptr inbounds %struct._phar_metadata_tracker, ptr %81, i32 0, i32 0
  store ptr %82, ptr %18, align 8
  %83 = load ptr, ptr %18, align 8
  %84 = getelementptr inbounds %struct._zval_struct, ptr %83, i32 0, i32 0
  %85 = load ptr, ptr %84, align 8
  store ptr %85, ptr %19, align 8
  %86 = load ptr, ptr %18, align 8
  %87 = getelementptr inbounds %struct._zval_struct, ptr %86, i32 0, i32 1
  %88 = load i32, ptr %87, align 8
  store i32 %88, ptr %20, align 4
  br label %89

89:                                               ; preds = %79
  %90 = load ptr, ptr %19, align 8
  %91 = load ptr, ptr %17, align 8
  %92 = getelementptr inbounds %struct._zval_struct, ptr %91, i32 0, i32 0
  store ptr %90, ptr %92, align 8
  %93 = load i32, ptr %20, align 4
  %94 = load ptr, ptr %17, align 8
  %95 = getelementptr inbounds %struct._zval_struct, ptr %94, i32 0, i32 1
  store i32 %93, ptr %95, align 8
  br label %96

96:                                               ; preds = %89
  %97 = load i32, ptr %20, align 4
  %98 = and i32 %97, 65280
  %99 = icmp ne i32 %98, 0
  br i1 %99, label %100, label %106

100:                                              ; preds = %96
  %101 = load ptr, ptr %19, align 8
  %102 = getelementptr inbounds %struct._zend_refcounted, ptr %101, i32 0, i32 0
  store ptr %102, ptr %6, align 8
  %103 = load ptr, ptr %6, align 8
  %104 = load i32, ptr %103, align 4
  %105 = add i32 %104, 1
  store i32 %105, ptr %103, align 4
  br label %106

106:                                              ; preds = %100, %96
  br label %107

107:                                              ; preds = %106
  br label %108

108:                                              ; preds = %107
  store i32 0, ptr %9, align 4
  br label %109

109:                                              ; preds = %108, %77, %76, %45
  %110 = load i32, ptr %9, align 4
  ret i32 %110
}