; Function Attrs: nounwind uwtable
define hidden noundef i32 @phar_metadata_tracker_unserialize_or_copy(ptr nocapture noundef readonly %0, ptr noundef %1, i32 noundef %2, ptr noundef %3, ptr noundef %4) local_unnamed_addr #0 {
  %.not = icmp eq ptr %3, null
  br i1 %.not, label %10, label %6

6:                                                ; preds = %5
  %7 = getelementptr inbounds i8, ptr %3, i64 28
  %8 = load i32, ptr %7, align 4
  %9 = icmp ne i32 %8, 0
  br label %10

10:                                               ; preds = %6, %5
  %11 = phi i1 [ false, %5 ], [ %9, %6 ]
  %12 = getelementptr inbounds i8, ptr %0, i64 8
  %13 = load i8, ptr %12, align 8
  %14 = icmp eq i8 %13, 0
  %brmerge = select i1 %14, i1 true, i1 %11
  br i1 %brmerge, label %15, label %28

15:                                               ; preds = %10
  %16 = load ptr, ptr getelementptr inbounds (%struct._zend_executor_globals, ptr @executor_globals, i64 0, i32 50), align 8
  %.not29 = icmp eq ptr %16, null
  br i1 %.not29, label %17, label %36

17:                                               ; preds = %15
  %18 = getelementptr inbounds i8, ptr %0, i64 16
  %19 = load ptr, ptr %18, align 8
  %20 = icmp ne ptr %19, null
  tail call void @llvm.assume(i1 %20)
  %21 = getelementptr inbounds i8, ptr %1, i64 8
  store i32 1, ptr %21, align 8
  %22 = load ptr, ptr %18, align 8
  %23 = getelementptr inbounds i8, ptr %22, i64 24
  %24 = getelementptr inbounds i8, ptr %22, i64 16
  %25 = load i64, ptr %24, align 8
  tail call void @php_unserialize_with_options(ptr noundef %1, ptr noundef nonnull %23, i64 noundef %25, ptr noundef %3, ptr noundef %4) #23
  %26 = load ptr, ptr getelementptr inbounds (%struct._zend_executor_globals, ptr @executor_globals, i64 0, i32 50), align 8
  %.not30 = icmp eq ptr %26, null
  br i1 %.not30, label %36, label %27

27:                                               ; preds = %17
  tail call void @zval_ptr_dtor(ptr noundef nonnull %1) #23
  store i32 0, ptr %21, align 8
  br label %36

28:                                               ; preds = %10
  %29 = load ptr, ptr %0, align 8
  %30 = load i32, ptr %12, align 8
  store ptr %29, ptr %1, align 8
  %31 = getelementptr inbounds i8, ptr %1, i64 8
  store i32 %30, ptr %31, align 8
  %32 = and i32 %30, 65280
  %.not28 = icmp eq i32 %32, 0
  br i1 %.not28, label %36, label %33

33:                                               ; preds = %28
  %34 = load i32, ptr %29, align 4
  %35 = add i32 %34, 1
  store i32 %35, ptr %29, align 4
  br label %36

36:                                               ; preds = %28, %33, %17, %15, %27
  %.0 = phi i32 [ -1, %27 ], [ -1, %15 ], [ 0, %17 ], [ 0, %33 ], [ 0, %28 ]
  ret i32 %.0
}